Certificate:
    Data:
        Version: 3 (0x2)
        Serial Number: 0 (0x0)
        Signature Algorithm: dsaWithSHA1
        Issuer: CN=cert1, C=us, L=asdf, ST=sjm, O=snt, OU=test/emailAddress=sam@gmail.com
        Validity
            Not Before: Aug  3 23:21:23 2012 GMT
            Not After : Aug  3 23:21:23 2013 GMT
        Subject: CN=cert1, C=US, L=SNT, ST=NK, O=EXATA, OU=DEV/emailAddress=s@gmail.com
        Subject Public Key Info:
            Public Key Algorithm: dsaEncryption
                pub: 
                    64:37:b4:17:7e:70:91:9c:5b:32:61:06:03:89:ac:
                    18:ad:48:ed:2f:d5:51:b8:53:60:79:6f:d9:33:56:
                    c3:2e:52:b8:08:ce:86:a2:d4:fe:22:5f:ca:92:bf:
                    ec:12:f2:2e:85:18:28:61:a8:9d:af:df:67:85:69:
                    74:88:6a:37
                P:   
                    00:cd:a4:85:89:63:b2:10:a5:f2:26:e0:68:14:20:
                    a3:c0:67:f6:5b:25:29:f4:42:5f:13:45:5f:d6:e9:
                    2e:36:0e:68:fa:7c:ac:a2:d3:a3:74:3e:9e:99:2a:
                    f8:92:8f:42:51:bb:50:fe:73:49:f8:26:78:66:b0:
                    bd:5d:a5:ee:8f
                Q:   
                    00:ee:44:12:d5:9a:f1:e0:f5:d5:d9:cb:c4:85:5d:
                    b7:19:86:90:54:c3
                G:   
                    30:d2:20:d9:c4:e3:da:88:b0:35:59:7d:2e:b0:34:
                    aa:85:b0:34:38:29:68:45:6e:c8:a4:c4:ac:dc:2c:
                    3b:fe:7a:99:85:45:97:15:50:b4:8a:c0:bc:67:21:
                    54:b2:aa:c9:25:08:34:88:8d:f6:b9:2a:8a:d0:3a:
                    de:48:37:65
        X509v3 extensions:
            X509v3 Basic Constraints: critical
                CA:TRUE
            X509v3 Key Usage: critical
                Certificate Sign, CRL Sign
            X509v3 Subject Key Identifier: 
                90:55:F3:10:3C:74:1B:24:16:7D:DA:86:AD:5C:C1:9D:6C:3C:F6:A0
            Netscape Cert Type: 
                SSL CA
            Netscape Comment: 
                example comment extension
    Signature Algorithm: dsaWithSHA1
        30:2d:02:15:00:db:65:48:5d:84:93:56:2b:fd:61:e4:5d:1f:
        04:0c:c8:e7:db:2f:b0:02:14:3d:69:6d:aa:81:a8:70:fe:b0:
        03:5d:d8:9e:34:a9:2e:28:30:04:7e
-----BEGIN CERTIFICATE-----
MIIC0zCCApKgAwIBAgIBADAJBgcqhkjOOAQDMHUxDjAMBgNVBAMTBWNlcnQxMQsw
CQYDVQQGEwJ1czENMAsGA1UEBxMEYXNkZjEMMAoGA1UECBMDc2ptMQwwCgYDVQQK
EwNzbnQxDTALBgNVBAsTBHRlc3QxHDAaBgkqhkiG9w0BCQEWDXNhbUBnbWFpbC5j
b20wHhcNMTIwODAzMjMyMTIzWhcNMTMwODAzMjMyMTIzWjByMQ4wDAYDVQQDEwVj
ZXJ0MTELMAkGA1UEBhMCVVMxDDAKBgNVBAcTA1NOVDELMAkGA1UECBMCTksxDjAM
BgNVBAoTBUVYQVRBMQwwCgYDVQQLEwNERVYxGjAYBgkqhkiG9w0BCQEWC3NAZ21h
aWwuY29tMIHwMIGoBgcqhkjOOAQBMIGcAkEAzaSFiWOyEKXyJuBoFCCjwGf2WyUp
9EJfE0Vf1ukuNg5o+nysotOjdD6emSr4ko9CUbtQ/nNJ+CZ4ZrC9XaXujwIVAO5E
EtWa8eD11dnLxIVdtxmGkFTDAkAw0iDZxOPaiLA1WX0usDSqhbA0OCloRW7IpMSs
3Cw7/nqZhUWXFVC0isC8ZyFUsqrJJQg0iI32uSqK0DreSDdlA0MAAkBkN7QXfnCR
nFsyYQYDiawYrUjtL9VRuFNgeW/ZM1bDLlK4CM6GotT+Il/Kkr/sEvIuhRgoYaid
r99nhWl0iGo3o38wfTAPBgNVHRMBAf8EBTADAQH/MA4GA1UdDwEB/wQEAwIBBjAd
BgNVHQ4EFgQUkFXzEDx0GyQWfdqGrVzBnWw89qAwEQYJYIZIAYb4QgEBBAQDAgIE
MCgGCWCGSAGG+EIBDQQbFhlleGFtcGxlIGNvbW1lbnQgZXh0ZW5zaW9uMAkGByqG
SM44BAMDMAAwLQIVANtlSF2Ek1Yr/WHkXR8EDMjn2y+wAhQ9aW2qgahw/rADXdie
NKkuKDAEfg==
-----END CERTIFICATE-----
