Certificate:
    Data:
        Version: 3 (0x2)
        Serial Number: 0 (0x0)
        Signature Algorithm: sha1WithRSAEncryption
        Issuer: CN=cert2, C=us, L=DS, ST=sjm, O=scl, OU=test/emailAddress=sam@gmail.com
        Validity
            Not Before: Aug  3 23:21:24 2012 GMT
            Not After : Aug  3 23:21:24 2013 GMT
        Subject: CN=cert2, C=US, L=SNT, ST=LA, O=QUALNET, OU=QA/emailAddress=s@gmail.com
        Subject Public Key Info:
            Public Key Algorithm: rsaEncryption
                Public-Key: (1024 bit)
                Modulus:
                    00:da:2d:07:e7:40:05:ef:c9:14:4e:79:06:b1:7f:
                    4c:ab:58:8d:02:3c:a4:ff:83:12:3f:1f:46:c4:a5:
                    9e:4e:f3:0c:d2:83:41:ce:f1:f4:79:69:51:6f:ac:
                    d7:44:3b:23:ca:83:3e:48:be:c6:7a:d3:7a:38:39:
                    0c:c2:c3:5b:3f:1b:18:d1:79:42:a0:e3:75:cf:4e:
                    7c:cf:82:19:dc:8c:37:74:73:a4:38:3c:20:76:14:
                    ec:9f:86:c3:2c:23:26:8f:8a:ab:07:43:0b:2c:84:
                    55:54:0a:07:b0:36:7f:78:e4:bf:eb:64:d1:7b:75:
                    59:88:2e:40:82:cf:b1:bd:df
                Exponent: 65537 (0x10001)
        X509v3 extensions:
            X509v3 Basic Constraints: critical
                CA:TRUE
            X509v3 Key Usage: critical
                Certificate Sign, CRL Sign
            X509v3 Subject Key Identifier: 
                85:27:E4:E9:57:17:6A:E0:2F:FB:A5:B9:C9:7E:09:EC:D6:E9:DC:5E
            Netscape Cert Type: 
                SSL CA
            Netscape Comment: 
                example comment extension
    Signature Algorithm: sha1WithRSAEncryption
        6e:92:38:a2:2c:cf:d4:0a:90:3f:85:85:2b:9d:de:27:40:a5:
        d5:16:08:67:72:89:5f:00:b7:0f:f5:80:d7:d7:ad:2b:2c:ed:
        cf:22:56:04:51:bc:b1:3c:ab:03:46:26:1c:96:55:67:6f:79:
        ca:49:fc:86:b1:03:48:c4:5c:51:92:76:ab:e0:75:7e:47:11:
        0c:26:60:1b:d9:72:69:b4:52:91:37:62:2f:5c:f2:9c:82:ab:
        7b:63:5b:31:2a:fc:e8:c4:c8:29:db:0d:a9:1d:7c:35:36:34:
        86:18:2c:40:44:e1:35:18:22:08:cf:68:4f:49:37:32:e3:27:
        18:49
-----BEGIN CERTIFICATE-----
MIIC2zCCAkSgAwIBAgIBADANBgkqhkiG9w0BAQUFADBzMQ4wDAYDVQQDEwVjZXJ0
MjELMAkGA1UEBhMCdXMxCzAJBgNVBAcTAkRTMQwwCgYDVQQIEwNzam0xDDAKBgNV
BAoTA3NjbDENMAsGA1UECxMEdGVzdDEcMBoGCSqGSIb3DQEJARYNc2FtQGdtYWls
LmNvbTAeFw0xMjA4MDMyMzIxMjRaFw0xMzA4MDMyMzIxMjRaMHMxDjAMBgNVBAMT
BWNlcnQyMQswCQYDVQQGEwJVUzEMMAoGA1UEBxMDU05UMQswCQYDVQQIEwJMQTEQ
MA4GA1UEChMHUVVBTE5FVDELMAkGA1UECxMCUUExGjAYBgkqhkiG9w0BCQEWC3NA
Z21haWwuY29tMIGfMA0GCSqGSIb3DQEBAQUAA4GNADCBiQKBgQDaLQfnQAXvyRRO
eQaxf0yrWI0CPKT/gxI/H0bEpZ5O8wzSg0HO8fR5aVFvrNdEOyPKgz5IvsZ603o4
OQzCw1s/GxjReUKg43XPTnzPghncjDd0c6Q4PCB2FOyfhsMsIyaPiqsHQwsshFVU
CgewNn945L/rZNF7dVmILkCCz7G93wIDAQABo38wfTAPBgNVHRMBAf8EBTADAQH/
MA4GA1UdDwEB/wQEAwIBBjAdBgNVHQ4EFgQUhSfk6VcXauAv+6W5yX4J7Nbp3F4w
EQYJYIZIAYb4QgEBBAQDAgIEMCgGCWCGSAGG+EIBDQQbFhlleGFtcGxlIGNvbW1l
bnQgZXh0ZW5zaW9uMA0GCSqGSIb3DQEBBQUAA4GBAG6SOKIsz9QKkD+FhSud3idA
pdUWCGdyiV8Atw/1gNfXrSss7c8iVgRRvLE8qwNGJhyWVWdvecpJ/IaxA0jEXFGS
dqvgdX5HEQwmYBvZcmm0UpE3Yi9c8pyCq3tjWzEq/OjEyCnbDakdfDU2NIYYLEBE
4TUYIgjPaE9JNzLjJxhJ
-----END CERTIFICATE-----
