Certificate:
    Data:
        Version: 3 (0x2)
        Serial Number: 1 (0x1)
        Signature Algorithm: md5WithRSAEncryption
        Issuer: C=US, ST=CA, L=LA, O=SNT
        Validity
            Not Before: Jun  1 20:07:04 2009 GMT
            Not After : May 30 20:07:04 2019 GMT
        Subject: C=US, ST=CA, O=SNT, CN=server
        Subject Public Key Info:
            Public Key Algorithm: rsaEncryption
            RSA Public Key: (1024 bit)
                Modulus (1024 bit):
                    00:e1:3a:94:0e:0f:5a:51:c1:19:44:ce:90:e4:9e:
                    f5:ff:f5:0f:34:58:f2:56:14:f8:e7:96:ec:e8:a7:
                    0f:e1:84:77:ea:c3:14:18:9b:6d:41:cd:02:44:a6:
                    1b:61:c0:af:64:e9:a3:64:77:34:e4:cc:a6:b8:1d:
                    9e:70:63:17:fc:22:a6:52:58:b8:4b:da:76:ce:21:
                    c6:7a:bd:8b:ed:c9:d3:32:4b:e7:92:31:cb:a3:18:
                    2a:bb:2f:8f:72:62:0e:3a:99:c8:ef:48:71:f3:54:
                    58:6f:13:9b:d5:0d:9d:59:ae:4f:6d:e9:ea:6d:92:
                    aa:c6:fb:e3:e1:79:37:f3:c1
                Exponent: 65537 (0x10001)
        X509v3 extensions:
            X509v3 Basic Constraints: 
                CA:FALSE
            Netscape Cert Type: 
                SSL Server
            Netscape Comment: 
                OpenSSL Generated Server Certificate
            X509v3 Subject Key Identifier: 
                93:DC:A4:2E:48:04:60:01:F3:4E:0B:E1:6B:9F:0F:6E:05:6B:0A:1A
            X509v3 Authority Key Identifier: 
                keyid:FE:75:FA:86:E0:36:4F:AE:E2:22:25:62:A6:89:F5:89:90:68:65:BB
                DirName:/C=US/ST=CA/L=LA/O=SNT
                serial:CD:8E:D7:5C:DA:35:FD:84

    Signature Algorithm: md5WithRSAEncryption
        7e:b6:ac:2c:e2:62:eb:56:f7:b7:7e:5f:2c:30:11:91:a2:84:
        8c:85:a5:5b:2e:14:32:0b:fc:75:09:0f:a4:5e:93:ef:ec:04:
        4a:43:dd:e9:78:9e:13:d2:02:0a:39:19:ce:4c:06:70:c6:2e:
        a4:aa:9d:0e:64:ca:00:5c:6c:f5:db:0b:1a:a1:04:30:ea:5e:
        7e:b9:88:ab:27:14:1e:fd:63:ae:a6:b7:75:5f:ba:f2:24:74:
        fc:71:29:b5:27:c4:cc:3d:8f:e6:88:41:e6:bb:35:d6:c0:c6:
        2a:b3:2f:92:b2:13:a2:f8:eb:bc:53:25:69:ff:83:46:09:e0:
        a3:cb
-----BEGIN CERTIFICATE-----
MIICwTCCAiqgAwIBAgIBATANBgkqhkiG9w0BAQQFADA1MQswCQYDVQQGEwJVUzEL
MAkGA1UECBMCQ0ExCzAJBgNVBAcTAkxBMQwwCgYDVQQKEwNTTlQwHhcNMDkwNjAx
MjAwNzA0WhcNMTkwNTMwMjAwNzA0WjA5MQswCQYDVQQGEwJVUzELMAkGA1UECBMC
Q0ExDDAKBgNVBAoTA1NOVDEPMA0GA1UEAxMGc2VydmVyMIGfMA0GCSqGSIb3DQEB
AQUAA4GNADCBiQKBgQDhOpQOD1pRwRlEzpDknvX/9Q80WPJWFPjnluzopw/hhHfq
wxQYm21BzQJEphthwK9k6aNkdzTkzKa4HZ5wYxf8IqZSWLhL2nbOIcZ6vYvtydMy
S+eSMcujGCq7L49yYg46mcjvSHHzVFhvE5vVDZ1Zrk9t6eptkqrG++PheTfzwQID
AQABo4HcMIHZMAkGA1UdEwQCMAAwEQYJYIZIAYb4QgEBBAQDAgZAMDMGCWCGSAGG
+EIBDQQmFiRPcGVuU1NMIEdlbmVyYXRlZCBTZXJ2ZXIgQ2VydGlmaWNhdGUwHQYD
VR0OBBYEFJPcpC5IBGAB804L4WufD24FawoaMGUGA1UdIwReMFyAFP51+obgNk+u
4iIlYqaJ9YmQaGW7oTmkNzA1MQswCQYDVQQGEwJVUzELMAkGA1UECBMCQ0ExCzAJ
BgNVBAcTAkxBMQwwCgYDVQQKEwNTTlSCCQDNjtdc2jX9hDANBgkqhkiG9w0BAQQF
AAOBgQB+tqws4mLrVve3fl8sMBGRooSMhaVbLhQyC/x1CQ+kXpPv7ARKQ93peJ4T
0gIKORnOTAZwxi6kqp0OZMoAXGz12wsaoQQw6l5+uYirJxQe/WOuprd1X7ryJHT8
cSm1J8TMPY/miEHmuzXWwMYqsy+SshOi+Ou8UyVp/4NGCeCjyw==
-----END CERTIFICATE-----
