Certificate:
    Data:
        Version: 3 (0x2)
        Serial Number: 2 (0x2)
        Signature Algorithm: md5WithRSAEncryption
        Issuer: C=US, ST=CA, L=LA, O=SNT
        Validity
            Not Before: Jun  1 20:07:41 2009 GMT
            Not After : May 30 20:07:41 2019 GMT
        Subject: C=US, ST=CA, O=SNT, CN=client1
        Subject Public Key Info:
            Public Key Algorithm: rsaEncryption
            RSA Public Key: (1024 bit)
                Modulus (1024 bit):
                    00:98:f3:78:da:8b:46:56:f0:4e:b8:89:d9:a4:a8:
                    6d:e0:84:21:f3:16:2a:20:3a:1e:82:85:1d:a3:70:
                    34:68:4b:cf:cf:78:61:34:55:fb:0c:6f:05:1a:3c:
                    6b:03:12:2b:a4:dd:f2:4d:dc:3b:60:36:30:0c:be:
                    33:29:f9:19:76:9c:b5:ed:51:0d:c1:79:0d:33:71:
                    eb:97:0d:77:9d:c2:46:d1:2d:90:cd:af:f9:0c:f4:
                    6c:15:36:b8:72:ac:54:7c:fe:71:5b:4d:01:2d:95:
                    11:ce:b9:51:5f:cd:73:e3:79:b3:eb:6c:1c:e0:b8:
                    3f:e5:ee:aa:cf:aa:64:4a:7b
                Exponent: 65537 (0x10001)
        X509v3 extensions:
            X509v3 Basic Constraints: 
                CA:FALSE
            Netscape Comment: 
                OpenSSL Generated Certificate
            X509v3 Subject Key Identifier: 
                B2:4E:F0:C4:67:3A:B7:E4:F2:19:52:77:2E:C8:22:73:B2:85:BF:0E
            X509v3 Authority Key Identifier: 
                keyid:FE:75:FA:86:E0:36:4F:AE:E2:22:25:62:A6:89:F5:89:90:68:65:BB
                DirName:/C=US/ST=CA/L=LA/O=SNT
                serial:CD:8E:D7:5C:DA:35:FD:84

    Signature Algorithm: md5WithRSAEncryption
        31:11:1b:49:f9:a3:95:23:7d:0a:fa:9f:0b:1a:bb:59:91:98:
        27:01:a0:68:ac:50:19:6a:a9:a6:76:42:8b:91:22:e3:e8:6e:
        d0:9f:9f:2d:71:0a:19:76:8d:22:6b:68:e9:5d:a7:95:9b:5c:
        d0:2b:52:ad:9f:a2:36:69:19:1d:f6:70:a1:97:37:e2:d5:f8:
        b4:72:7b:2a:f4:06:a6:1d:ff:44:8c:66:22:5a:2c:84:cb:0a:
        b7:80:37:53:4c:b7:15:84:16:dd:0c:d9:c6:1a:c4:61:65:45:
        fb:44:91:99:80:fb:ab:96:a1:66:f2:e7:e1:3b:1d:9a:dc:e8:
        62:1d
-----BEGIN CERTIFICATE-----
MIICqDCCAhGgAwIBAgIBAjANBgkqhkiG9w0BAQQFADA1MQswCQYDVQQGEwJVUzEL
MAkGA1UECBMCQ0ExCzAJBgNVBAcTAkxBMQwwCgYDVQQKEwNTTlQwHhcNMDkwNjAx
MjAwNzQxWhcNMTkwNTMwMjAwNzQxWjA6MQswCQYDVQQGEwJVUzELMAkGA1UECBMC
Q0ExDDAKBgNVBAoTA1NOVDEQMA4GA1UEAxMHY2xpZW50MTCBnzANBgkqhkiG9w0B
AQEFAAOBjQAwgYkCgYEAmPN42otGVvBOuInZpKht4IQh8xYqIDoegoUdo3A0aEvP
z3hhNFX7DG8FGjxrAxIrpN3yTdw7YDYwDL4zKfkZdpy17VENwXkNM3Hrlw13ncJG
0S2Qza/5DPRsFTa4cqxUfP5xW00BLZURzrlRX81z43mz62wc4Lg/5e6qz6pkSnsC
AwEAAaOBwjCBvzAJBgNVHRMEAjAAMCwGCWCGSAGG+EIBDQQfFh1PcGVuU1NMIEdl
bmVyYXRlZCBDZXJ0aWZpY2F0ZTAdBgNVHQ4EFgQUsk7wxGc6t+TyGVJ3Lsgic7KF
vw4wZQYDVR0jBF4wXIAU/nX6huA2T67iIiVipon1iZBoZbuhOaQ3MDUxCzAJBgNV
BAYTAlVTMQswCQYDVQQIEwJDQTELMAkGA1UEBxMCTEExDDAKBgNVBAoTA1NOVIIJ
AM2O11zaNf2EMA0GCSqGSIb3DQEBBAUAA4GBADERG0n5o5UjfQr6nwsau1mRmCcB
oGisUBlqqaZ2QouRIuPobtCfny1xChl2jSJraOldp5WbXNArUq2fojZpGR32cKGX
N+LV+LRyeyr0BqYd/0SMZiJaLITLCreAN1NMtxWEFt0M2cYaxGFlRftEkZmA+6uW
oWby5+E7HZrc6GId
-----END CERTIFICATE-----
